; Function Attrs: nounwind uwtable
define void @Hop_ObjDisconnect(ptr noundef %0, ptr noundef %1) local_unnamed_addr #0 {
  %3 = getelementptr inbounds nuw i8, ptr %1, i64 16
  %4 = load ptr, ptr %3, align 8
  %.not = icmp eq ptr %4, null
  br i1 %.not, label %15, label %5

5:                                                ; preds = %2
  %6 = ptrtoint ptr %4 to i64
  %7 = and i64 %6, -2
  %8 = inttoptr i64 %7 to ptr
  %9 = getelementptr inbounds nuw i8, ptr %8, i64 32
  %10 = load i32, ptr %9, align 8
  %11 = and i32 %10, -64
  %12 = add i32 %11, -64
  %13 = and i32 %10, 63
  %14 = or disjoint i32 %12, %13
  store i32 %14, ptr %9, align 8
  br label %15

15:                                               ; preds = %5, %2
  %16 = getelementptr inbounds nuw i8, ptr %1, i64 24
  %17 = load ptr, ptr %16, align 8
  %.not8 = icmp eq ptr %17, null
  br i1 %.not8, label %28, label %18

18:                                               ; preds = %15
  %19 = ptrtoint ptr %17 to i64
  %20 = and i64 %19, -2
  %21 = inttoptr i64 %20 to ptr
  %22 = getelementptr inbounds nuw i8, ptr %21, i64 32
  %23 = load i32, ptr %22, align 8
  %24 = and i32 %23, -64
  %25 = add i32 %24, -64
  %26 = and i32 %23, 63
  %27 = or disjoint i32 %25, %26
  store i32 %27, ptr %22, align 8
  br label %28

28:                                               ; preds = %18, %15
  tail call void @Hop_TableDelete(ptr noundef %0, ptr noundef nonnull %1) #10
  tail call void @llvm.memset.p0.i64(ptr noundef nonnull align 8 dereferenceable(16) %3, i8 0, i64 16, i1 false)
  ret void
}